; Function Attrs: mustprogress uwtable
define hidden void @_ZN6spacer12dl_interface11updt_paramsEv(ptr noundef nonnull align 8 captures(none) dereferenceable(600) %0) unnamed_addr #3 align 2 {
  %2 = getelementptr inbounds nuw i8, ptr %0, i64 552
  %3 = load ptr, ptr %2, align 8, !tbaa !214
  %4 = icmp eq ptr %3, null
  br i1 %4, label %_Z7deallocIN6spacer7contextEEvPT_.exit, label %5

5:                                                ; preds = %1
  tail call void @_ZN6spacer7contextD1Ev(ptr noundef nonnull align 8 dereferenceable(712) %3) #21
  tail call void @_ZN6memory10deallocateEPv(ptr noundef nonnull %3)
  br label %_Z7deallocIN6spacer7contextEEvPT_.exit

_Z7deallocIN6spacer7contextEEvPT_.exit:           ; preds = %1, %5
  %6 = tail call noalias noundef ptr @_ZN6memory8allocateEm(i64 noundef 712)
  %7 = getelementptr inbounds nuw i8, ptr %0, i64 48
  %8 = load ptr, ptr %7, align 8, !tbaa !233
  %9 = getelementptr inbounds nuw i8, ptr %8, i64 32
  %10 = load ptr, ptr %9, align 8, !tbaa !223
  %11 = load ptr, ptr %8, align 8, !tbaa !3
  tail call void @_ZN6spacer7contextC1ERK9fp_paramsR11ast_manager(ptr noundef nonnull align 8 dereferenceable(712) %6, ptr noundef nonnull align 8 dereferenceable(16) %10, ptr noundef nonnull align 8 dereferenceable(976) %11)
  store ptr %6, ptr %2, align 8, !tbaa !214
  ret void
}